; Function Attrs: mustprogress nounwind uwtable
define noundef zeroext i1 @_ZN7rocksdb15DeleteScheduler11IsTrashFileERKNSt7__cxx1112basic_stringIcSt11char_traitsIcESaIcEEE(ptr noundef nonnull align 8 dereferenceable(32) %0) local_unnamed_addr #1 align 2 {
  %2 = getelementptr inbounds nuw i8, ptr %0, i64 8
  %3 = load i64, ptr %2, align 8, !tbaa !16
  %4 = load i64, ptr getelementptr inbounds nuw (i8, ptr @_ZN7rocksdb15DeleteScheduler15kTrashExtensionB5cxx11E, i64 8), align 8, !tbaa !16
  %.not = icmp ult i64 %3, %4
  br i1 %.not, label %12, label %5

5:                                                ; preds = %1
  %6 = load ptr, ptr @_ZN7rocksdb15DeleteScheduler15kTrashExtensionB5cxx11E, align 8, !tbaa !11
  %7 = tail call noundef i64 @_ZNKSt7__cxx1112basic_stringIcSt11char_traitsIcESaIcEE5rfindEPKcmm(ptr noundef nonnull align 8 dereferenceable(32) %0, ptr noundef %6, i64 noundef -1, i64 noundef %4) #23
  %8 = load i64, ptr %2, align 8, !tbaa !16
  %9 = load i64, ptr getelementptr inbounds nuw (i8, ptr @_ZN7rocksdb15DeleteScheduler15kTrashExtensionB5cxx11E, i64 8), align 8, !tbaa !16
  %10 = sub i64 %8, %9
  %11 = icmp eq i64 %7, %10
  br label %12

12:                                               ; preds = %5, %1
  %13 = phi i1 [ false, %1 ], [ %11, %5 ]
  ret i1 %13
}